; Function Attrs: mustprogress uwtable
define noundef nonnull align 8 dereferenceable(64) ptr @_ZNK6icu_7724DateTimePatternGenerator17getDateTimeFormatEv(ptr noundef nonnull readnone align 8 dereferenceable(4796) %0) local_unnamed_addr #1 align 2 personality ptr @__gxx_personality_v0 {
  %2 = alloca %"class.icu_77::ConstChar16Ptr", align 8
  call void @llvm.lifetime.start.p0(i64 8, ptr nonnull %2)
  %3 = load atomic i8, ptr @_ZGVZNK6icu_7724DateTimePatternGenerator17getDateTimeFormatE16UDateFormatStyleR10UErrorCodeE11emptyString acquire, align 8
  %4 = icmp eq i8 %3, 0
  br i1 %4, label %5, label %_ZNK6icu_7724DateTimePatternGenerator17getDateTimeFormatE16UDateFormatStyleR10UErrorCode.exit, !prof !155

5:                                                ; preds = %1
  %6 = tail call i32 @__cxa_guard_acquire(ptr nonnull @_ZGVZNK6icu_7724DateTimePatternGenerator17getDateTimeFormatE16UDateFormatStyleR10UErrorCodeE11emptyString) #35
  %.not.i = icmp eq i32 %6, 0
  br i1 %.not.i, label %_ZNK6icu_7724DateTimePatternGenerator17getDateTimeFormatE16UDateFormatStyleR10UErrorCode.exit, label %7

7:                                                ; preds = %5
  store ptr @.str.12, ptr %2, align 8, !tbaa !90
  invoke void @_ZN6icu_7713UnicodeStringC1EaNS_14ConstChar16PtrEi(ptr noundef nonnull align 8 dereferenceable(64) @_ZZNK6icu_7724DateTimePatternGenerator17getDateTimeFormatE16UDateFormatStyleR10UErrorCodeE11emptyString, i8 noundef signext 1, ptr noundef nonnull %2, i32 noundef -1)
          to label %8 unwind label %11

8:                                                ; preds = %7
  %9 = load ptr, ptr %2, align 8, !tbaa !90
  call void asm sideeffect "", "rm,~{memory},~{dirflag},~{fpsr},~{flags}"(ptr %9) #35, !srcloc !89
  %10 = call i32 @__cxa_atexit(ptr nonnull @_ZN6icu_7713UnicodeStringD1Ev, ptr nonnull @_ZZNK6icu_7724DateTimePatternGenerator17getDateTimeFormatE16UDateFormatStyleR10UErrorCodeE11emptyString, ptr nonnull @__dso_handle) #35
  call void @__cxa_guard_release(ptr nonnull @_ZGVZNK6icu_7724DateTimePatternGenerator17getDateTimeFormatE16UDateFormatStyleR10UErrorCodeE11emptyString) #35
  br label %_ZNK6icu_7724DateTimePatternGenerator17getDateTimeFormatE16UDateFormatStyleR10UErrorCode.exit

11:                                               ; preds = %7
  %12 = landingpad { ptr, i32 }
          cleanup
  %13 = load ptr, ptr %2, align 8, !tbaa !90
  call void asm sideeffect "", "rm,~{memory},~{dirflag},~{fpsr},~{flags}"(ptr %13) #35, !srcloc !89
  call void @__cxa_guard_abort(ptr nonnull @_ZGVZNK6icu_7724DateTimePatternGenerator17getDateTimeFormatE16UDateFormatStyleR10UErrorCodeE11emptyString) #35
  resume { ptr, i32 } %12

_ZNK6icu_7724DateTimePatternGenerator17getDateTimeFormatE16UDateFormatStyleR10UErrorCode.exit: ; preds = %8, %5, %1
  %14 = getelementptr inbounds nuw i8, ptr %0, i64 4488
  call void @llvm.lifetime.end.p0(i64 8, ptr nonnull %2)
  ret ptr %14
}